; ModuleID = '38/514.c'
source_filename = "38/514.c"
target datalayout = "e-m:e-p270:32:32-p271:32:32-p272:64:64-i64:64-f80:128-n8:16:32:64-S128"
target triple = "x86_64-pc-linux-gnu"

@.str = private unnamed_addr constant [3 x i8] c"%d\00", align 1
@.str.1 = private unnamed_addr constant [4 x i8] c"%lf\00", align 1
@.str.2 = private unnamed_addr constant [7 x i8] c"%.5lf\0A\00", align 1

; Function Attrs: noinline nounwind uwtable
define dso_local i32 @main() #0 {
  %1 = alloca i32, align 4
  %2 = alloca i32, align 4
  %3 = alloca i32, align 4
  %4 = alloca i32, align 4
  %5 = alloca i32, align 4
  %6 = alloca [100 x i32], align 16
  %7 = alloca [100 x [100 x double]], align 16
  %8 = alloca double, align 8
  %9 = alloca double, align 8
  %10 = alloca double, align 8
  store i32 0, i32* %1, align 4
  %11 = call i32 (i8*, ...) @__isoc99_scanf(i8* getelementptr inbounds ([3 x i8], [3 x i8]* @.str, i64 0, i64 0), i32* %2)
  store i32 0, i32* %4, align 4
  br label %12

12:                                               ; preds = %38, %0
  %13 = load i32, i32* %4, align 4
  %14 = load i32, i32* %2, align 4
  %15 = icmp slt i32 %13, %14
  br i1 %15, label %16, label %41

16:                                               ; preds = %12
  %17 = call i32 (i8*, ...) @__isoc99_scanf(i8* getelementptr inbounds ([3 x i8], [3 x i8]* @.str, i64 0, i64 0), i32* %3)
  store i32 0, i32* %5, align 4
  br label %18

18:                                               ; preds = %34, %16
  %19 = load i32, i32* %5, align 4
  %20 = load i32, i32* %3, align 4
  %21 = icmp slt i32 %19, %20
  br i1 %21, label %22, label %37

22:                                               ; preds = %18
  %23 = load i32, i32* %4, align 4
  %24 = sext i32 %23 to i64
  %25 = getelementptr inbounds [100 x [100 x double]], [100 x [100 x double]]* %7, i64 0, i64 %24
  %26 = load i32, i32* %5, align 4
  %27 = sext i32 %26 to i64
  %28 = getelementptr inbounds [100 x double], [100 x double]* %25, i64 0, i64 %27
  %29 = call i32 (i8*, ...) @__isoc99_scanf(i8* getelementptr inbounds ([4 x i8], [4 x i8]* @.str.1, i64 0, i64 0), double* %28)
  %30 = load i32, i32* %3, align 4
  %31 = load i32, i32* %4, align 4
  %32 = sext i32 %31 to i64
  %33 = getelementptr inbounds [100 x i32], [100 x i32]* %6, i64 0, i64 %32
  store i32 %30, i32* %33, align 4
  br label %34

34:                                               ; preds = %22
  %35 = load i32, i32* %5, align 4
  %36 = add nsw i32 %35, 1
  store i32 %36, i32* %5, align 4
  br label %18

37:                                               ; preds = %18
  br label %38

38:                                               ; preds = %37
  %39 = load i32, i32* %4, align 4
  %40 = add nsw i32 %39, 1
  store i32 %40, i32* %4, align 4
  br label %12

41:                                               ; preds = %12
  store i32 0, i32* %4, align 4
  br label %42

42:                                               ; preds = %117, %41
  %43 = load i32, i32* %4, align 4
  %44 = load i32, i32* %2, align 4
  %45 = icmp slt i32 %43, %44
  br i1 %45, label %46, label %120

46:                                               ; preds = %42
  store double 0.000000e+00, double* %8, align 8
  store double 0.000000e+00, double* %10, align 8
  store i32 0, i32* %5, align 4
  br label %47

47:                                               ; preds = %70, %46
  %48 = load i32, i32* %5, align 4
  %49 = load i32, i32* %4, align 4
  %50 = sext i32 %49 to i64
  %51 = getelementptr inbounds [100 x i32], [100 x i32]* %6, i64 0, i64 %50
  %52 = load i32, i32* %51, align 4
  %53 = icmp slt i32 %48, %52
  br i1 %53, label %54, label %73

54:                                               ; preds = %47
  %55 = load i32, i32* %4, align 4
  %56 = sext i32 %55 to i64
  %57 = getelementptr inbounds [100 x [100 x double]], [100 x [100 x double]]* %7, i64 0, i64 %56
  %58 = load i32, i32* %5, align 4
  %59 = sext i32 %58 to i64
  %60 = getelementptr inbounds [100 x double], [100 x double]* %57, i64 0, i64 %59
  %61 = load double, double* %60, align 8
  %62 = load i32, i32* %4, align 4
  %63 = sext i32 %62 to i64
  %64 = getelementptr inbounds [100 x i32], [100 x i32]* %6, i64 0, i64 %63
  %65 = load i32, i32* %64, align 4
  %66 = sitofp i32 %65 to double
  %67 = fdiv double %61, %66
  %68 = load double, double* %10, align 8
  %69 = fadd double %68, %67
  store double %69, double* %10, align 8
  br label %70

70:                                               ; preds = %54
  %71 = load i32, i32* %5, align 4
  %72 = add nsw i32 %71, 1
  store i32 %72, i32* %5, align 4
  br label %47

73:                                               ; preds = %47
  store i32 0, i32* %5, align 4
  br label %74

74:                                               ; preds = %109, %73
  %75 = load i32, i32* %5, align 4
  %76 = load i32, i32* %4, align 4
  %77 = sext i32 %76 to i64
  %78 = getelementptr inbounds [100 x i32], [100 x i32]* %6, i64 0, i64 %77
  %79 = load i32, i32* %78, align 4
  %80 = icmp slt i32 %75, %79
  br i1 %80, label %81, label %112

81:                                               ; preds = %74
  %82 = load i32, i32* %4, align 4
  %83 = sext i32 %82 to i64
  %84 = getelementptr inbounds [100 x [100 x double]], [100 x [100 x double]]* %7, i64 0, i64 %83
  %85 = load i32, i32* %5, align 4
  %86 = sext i32 %85 to i64
  %87 = getelementptr inbounds [100 x double], [100 x double]* %84, i64 0, i64 %86
  %88 = load double, double* %87, align 8
  %89 = load double, double* %10, align 8
  %90 = fsub double %88, %89
  %91 = load i32, i32* %4, align 4
  %92 = sext i32 %91 to i64
  %93 = getelementptr inbounds [100 x [100 x double]], [100 x [100 x double]]* %7, i64 0, i64 %92
  %94 = load i32, i32* %5, align 4
  %95 = sext i32 %94 to i64
  %96 = getelementptr inbounds [100 x double], [100 x double]* %93, i64 0, i64 %95
  %97 = load double, double* %96, align 8
  %98 = load double, double* %10, align 8
  %99 = fsub double %97, %98
  %100 = fmul double %90, %99
  %101 = load i32, i32* %4, align 4
  %102 = sext i32 %101 to i64
  %103 = getelementptr inbounds [100 x i32], [100 x i32]* %6, i64 0, i64 %102
  %104 = load i32, i32* %103, align 4
  %105 = sitofp i32 %104 to double
  %106 = fdiv double %100, %105
  %107 = load double, double* %8, align 8
  %108 = fadd double %107, %106
  store double %108, double* %8, align 8
  br label %109

109:                                              ; preds = %81
  %110 = load i32, i32* %5, align 4
  %111 = add nsw i32 %110, 1
  store i32 %111, i32* %5, align 4
  br label %74

112:                                              ; preds = %74
  %113 = load double, double* %8, align 8
  %114 = call double @sqrt(double %113) #3
  store double %114, double* %9, align 8
  %115 = load double, double* %9, align 8
  %116 = call i32 (i8*, ...) @printf(i8* getelementptr inbounds ([7 x i8], [7 x i8]* @.str.2, i64 0, i64 0), double %115)
  br label %117

117:                                              ; preds = %112
  %118 = load i32, i32* %4, align 4
  %119 = add nsw i32 %118, 1
  store i32 %119, i32* %4, align 4
  br label %42

120:                                              ; preds = %42
  ret i32 0
}

declare dso_local i32 @__isoc99_scanf(i8*, ...) #1

; Function Attrs: nounwind
declare dso_local double @sqrt(double) #2

declare dso_local i32 @printf(i8*, ...) #1


!llvm.module.flags = !{!0}
!llvm.ident = !{!1}

!0 = !{i32 1, !"wchar_size", i32 4}
!1 = !{!"clang version 10.0.0-4ubuntu1 "}
